target datalayout = "e-m:e-p270:32:32-p271:32:32-p272:64:64-i64:64-i128:128-f80:128-n8:16:32:64-S128"
target triple = "x86_64-unknown-linux-gnu"

@_ZTIN6icu_7512NumberFormatE = external constant ptr
@_ZTIN6icu_7513DecimalFormatE = external constant ptr
@_ZTIN6icu_7521RuleBasedNumberFormatE = external constant ptr

; Function Attrs: mustprogress nounwind uwtable
define internal noundef signext i8 @_ZL9U_FAILURE10UErrorCode(i32 noundef %code) #1 {
entry:
  %code.addr = alloca i32, align 4
  store i32 %code, ptr %code.addr, align 4
  %0 = load i32, ptr %code.addr, align 4
  %cmp = icmp sgt i32 %0, 0
  %conv = zext i1 %cmp to i8
  ret i8 %conv
}

; Function Attrs: mustprogress uwtable
define ptr @unum_clone_75(ptr noundef %fmt, ptr noundef %status) #0 {
entry:
  %retval = alloca ptr, align 8
  %fmt.addr = alloca ptr, align 8
  %status.addr = alloca ptr, align 8
  %res = alloca ptr, align 8
  %nf = alloca ptr, align 8
  %df = alloca ptr, align 8
  %rbnf = alloca ptr, align 8
  store ptr %fmt, ptr %fmt.addr, align 8
  store ptr %status, ptr %status.addr, align 8
  %0 = load ptr, ptr %status.addr, align 8
  %1 = load i32, ptr %0, align 4
  %call = call noundef signext i8 @_ZL9U_FAILURE10UErrorCode(i32 noundef %1)
  %tobool = icmp ne i8 %call, 0
  br i1 %tobool, label %if.then, label %if.end

if.then:                                          ; preds = %entry
  store ptr null, ptr %retval, align 8
  br label %return

if.end:                                           ; preds = %entry
  store ptr null, ptr %res, align 8
  %2 = load ptr, ptr %fmt.addr, align 8
  store ptr %2, ptr %nf, align 8
  %3 = load ptr, ptr %nf, align 8
  %4 = icmp eq ptr %3, null
  br i1 %4, label %dynamic_cast.null, label %dynamic_cast.notnull

dynamic_cast.notnull:                             ; preds = %if.end
  %5 = call ptr @__dynamic_cast(ptr %3, ptr @_ZTIN6icu_7512NumberFormatE, ptr @_ZTIN6icu_7513DecimalFormatE, i64 0) #8
  br label %dynamic_cast.end

dynamic_cast.null:                                ; preds = %if.end
  br label %dynamic_cast.end

dynamic_cast.end:                                 ; preds = %dynamic_cast.null, %dynamic_cast.notnull
  %6 = phi ptr [ %5, %dynamic_cast.notnull ], [ null, %dynamic_cast.null ]
  store ptr %6, ptr %df, align 8
  %7 = load ptr, ptr %df, align 8
  %cmp = icmp ne ptr %7, null
  br i1 %cmp, label %if.then1, label %if.else

if.then1:                                         ; preds = %dynamic_cast.end
  %8 = load ptr, ptr %df, align 8
  %vtable = load ptr, ptr %8, align 8
  %vfn = getelementptr inbounds ptr, ptr %vtable, i64 4
  %9 = load ptr, ptr %vfn, align 8
  %call2 = call noundef ptr %9(ptr noundef nonnull align 8 dereferenceable(368) %8)
  store ptr %call2, ptr %res, align 8
  br label %if.end9

if.else:                                          ; preds = %dynamic_cast.end
  %10 = load ptr, ptr %nf, align 8
  %11 = icmp eq ptr %10, null
  br i1 %11, label %dynamic_cast.null4, label %dynamic_cast.notnull3

dynamic_cast.notnull3:                            ; preds = %if.else
  %12 = call ptr @__dynamic_cast(ptr %10, ptr @_ZTIN6icu_7512NumberFormatE, ptr @_ZTIN6icu_7521RuleBasedNumberFormatE, i64 0) #8
  br label %dynamic_cast.end5

dynamic_cast.null4:                               ; preds = %if.else
  br label %dynamic_cast.end5

dynamic_cast.end5:                                ; preds = %dynamic_cast.null4, %dynamic_cast.notnull3
  %13 = phi ptr [ %12, %dynamic_cast.notnull3 ], [ null, %dynamic_cast.null4 ]
  store ptr %13, ptr %rbnf, align 8
  %14 = load ptr, ptr %rbnf, align 8
  %vtable6 = load ptr, ptr %14, align 8
  %vfn7 = getelementptr inbounds ptr, ptr %vtable6, i64 4
  %15 = load ptr, ptr %vfn7, align 8
  %call8 = call noundef ptr %15(ptr noundef nonnull align 8 dereferenceable(752) %14)
  store ptr %call8, ptr %res, align 8
  br label %if.end9

if.end9:                                          ; preds = %dynamic_cast.end5, %if.then1
  %16 = load ptr, ptr %res, align 8
  %cmp10 = icmp eq ptr %16, null
  br i1 %cmp10, label %if.then11, label %if.end12

if.then11:                                        ; preds = %if.end9
  %17 = load ptr, ptr %status.addr, align 8
  store i32 7, ptr %17, align 4
  store ptr null, ptr %retval, align 8
  br label %return

if.end12:                                         ; preds = %if.end9
  %18 = load ptr, ptr %res, align 8
  store ptr %18, ptr %retval, align 8
  br label %return

return:                                           ; preds = %if.end12, %if.then11, %if.then
  %19 = load ptr, ptr %retval, align 8
  ret ptr %19
}